Certificate:
    Data:
        Version: 3 (0x2)
        Serial Number: 2 (0x2)
        Signature Algorithm: sha256WithRSAEncryption
        Issuer: C=FR, ST=Radius, L=Somewhere, O=Example Inc./emailAddress=admin@example.org, CN=Example Certificate Authority
        Validity
            Not Before: May  4 18:22:50 2021 GMT
            Not After : Jul  3 18:22:50 2021 GMT
        Subject: C=FR, ST=Radius, O=Example Inc., CN=user@example.org/emailAddress=user@example.org
        Subject Public Key Info:
            Public Key Algorithm: rsaEncryption
                RSA Public-Key: (2048 bit)
                Modulus:
                    00:de:f6:5b:65:00:c6:5d:9b:90:57:01:d5:9a:d5:
                    e8:f1:f1:cb:5e:78:44:4e:f9:c7:36:53:e1:d6:04:
                    67:07:2c:5b:80:4c:1f:94:11:8d:5b:be:0b:db:2a:
                    84:c4:55:90:d7:70:b0:fe:c5:f3:d7:81:75:5f:b7:
                    01:fc:d5:44:b1:20:2b:65:6b:85:e7:e9:54:ef:1e:
                    07:3c:29:d6:4c:2c:4f:0e:05:f9:41:a8:8e:e6:6b:
                    5f:18:52:26:a0:bb:d4:1f:66:a6:43:a5:ec:cb:3a:
                    38:ca:a6:2e:f0:38:a1:c9:86:bd:69:28:44:74:fb:
                    17:17:55:8a:8a:73:02:71:1b:f2:57:58:64:6d:44:
                    e3:db:b3:9f:43:5d:18:87:a8:8e:a7:df:11:b8:64:
                    7b:9d:cf:7a:db:59:63:bc:2b:60:87:11:d1:f6:df:
                    25:ed:a9:a5:ac:e1:88:26:f2:b1:48:f7:cb:7e:35:
                    5f:1c:23:c0:a3:99:42:f5:32:8d:76:be:bf:a2:70:
                    32:29:42:11:47:2a:8b:00:92:08:8e:c9:57:cc:40:
                    06:32:68:71:4c:7c:71:45:34:02:e2:f0:5e:b7:0a:
                    c9:20:2a:7a:3c:e1:82:cb:7a:f7:90:30:41:b4:3f:
                    42:c9:d8:6c:f9:83:c8:05:38:dc:67:89:63:00:6f:
                    ae:6d
                Exponent: 65537 (0x10001)
        X509v3 extensions:
            X509v3 Extended Key Usage: 
                TLS Web Client Authentication
            X509v3 CRL Distribution Points: 

                Full Name:
                  URI:http://www.example.com/example_ca.crl

    Signature Algorithm: sha256WithRSAEncryption
         18:5f:9a:60:99:b3:e0:a2:23:83:a4:1a:28:e8:14:de:61:94:
         45:ff:71:cc:88:d2:7f:87:f2:88:1c:69:e4:f7:80:76:00:b0:
         8f:c4:f1:60:05:6a:c5:e1:80:69:64:a9:5e:ca:f8:f7:4a:10:
         df:ac:c2:35:3a:a6:c3:22:ff:47:71:01:11:5e:2d:aa:d5:46:
         8d:53:ac:88:76:b4:58:89:f4:90:e9:be:20:4a:72:07:a1:d8:
         42:e1:cc:75:c5:5d:74:87:47:27:d4:4b:8f:cc:9e:e4:9e:32:
         ec:03:4f:00:57:89:b4:ad:8d:0d:32:a1:5a:c5:3a:34:fe:93:
         07:ac:f0:82:97:de:af:bb:23:9f:f0:27:16:f9:74:e7:2b:6e:
         65:58:02:1c:71:af:b8:75:39:cf:42:f0:4f:6b:32:78:51:df:
         52:f8:e9:bd:16:eb:05:72:df:70:b1:c6:2c:e9:70:04:4a:e8:
         90:d2:18:d4:df:c5:fa:12:17:52:19:51:e7:de:f8:ca:bb:49:
         0d:8b:ea:04:20:fb:c1:bc:dd:ee:3a:44:b8:74:49:c9:e0:51:
         87:2c:33:96:e0:fc:7d:41:13:81:30:6a:42:28:04:04:02:06:
         70:ff:99:09:3d:de:79:26:ba:51:1d:79:cb:9d:ce:cd:37:bd:
         3a:d6:ee:da
-----BEGIN CERTIFICATE-----
MIIDzzCCAregAwIBAgIBAjANBgkqhkiG9w0BAQsFADCBkzELMAkGA1UEBhMCRlIx
DzANBgNVBAgMBlJhZGl1czESMBAGA1UEBwwJU29tZXdoZXJlMRUwEwYDVQQKDAxF
eGFtcGxlIEluYy4xIDAeBgkqhkiG9w0BCQEWEWFkbWluQGV4YW1wbGUub3JnMSYw
JAYDVQQDDB1FeGFtcGxlIENlcnRpZmljYXRlIEF1dGhvcml0eTAeFw0yMTA1MDQx
ODIyNTBaFw0yMTA3MDMxODIyNTBaMHExCzAJBgNVBAYTAkZSMQ8wDQYDVQQIDAZS
YWRpdXMxFTATBgNVBAoMDEV4YW1wbGUgSW5jLjEZMBcGA1UEAwwQdXNlckBleGFt
cGxlLm9yZzEfMB0GCSqGSIb3DQEJARYQdXNlckBleGFtcGxlLm9yZzCCASIwDQYJ
KoZIhvcNAQEBBQADggEPADCCAQoCggEBAN72W2UAxl2bkFcB1ZrV6PHxy154RE75
xzZT4dYEZwcsW4BMH5QRjVu+C9sqhMRVkNdwsP7F89eBdV+3AfzVRLEgK2Vrhefp
VO8eBzwp1kwsTw4F+UGojuZrXxhSJqC71B9mpkOl7Ms6OMqmLvA4ocmGvWkoRHT7
FxdViopzAnEb8ldYZG1E49uzn0NdGIeojqffEbhke53PettZY7wrYIcR0fbfJe2p
pazhiCbysUj3y341XxwjwKOZQvUyjXa+v6JwMilCEUcqiwCSCI7JV8xABjJocUx8
cUU0AuLwXrcKySAqejzhgst695AwQbQ/QsnYbPmDyAU43GeJYwBvrm0CAwEAAaNP
ME0wEwYDVR0lBAwwCgYIKwYBBQUHAwIwNgYDVR0fBC8wLTAroCmgJ4YlaHR0cDov
L3d3dy5leGFtcGxlLmNvbS9leGFtcGxlX2NhLmNybDANBgkqhkiG9w0BAQsFAAOC
AQEAGF+aYJmz4KIjg6QaKOgU3mGURf9xzIjSf4fyiBxp5PeAdgCwj8TxYAVqxeGA
aWSpXsr490oQ36zCNTqmwyL/R3EBEV4tqtVGjVOsiHa0WIn0kOm+IEpyB6HYQuHM
dcVddIdHJ9RLj8ye5J4y7ANPAFeJtK2NDTKhWsU6NP6TB6zwgpfer7sjn/AnFvl0
5ytuZVgCHHGvuHU5z0LwT2syeFHfUvjpvRbrBXLfcLHGLOlwBErokNIY1N/F+hIX
UhlR5974yrtJDYvqBCD7wbzd7jpEuHRJyeBRhywzluD8fUETgTBqQigEBAIGcP+Z
CT3eeSa6UR15y53OzTe9Otbu2g==
-----END CERTIFICATE-----
